target datalayout = "e-m:e-p270:32:32-p271:32:32-p272:64:64-i64:64-i128:128-f80:128-n8:16:32:64-S128"
target triple = "x86_64-pc-linux-gnu"

%struct.ObjectAddress = type { i32, i32, i32 }
%struct.AlterObjectSchemaStmt = type { i32, i32, ptr, ptr, ptr, i8 }
%struct.String = type { i32, ptr }

@.str.1 = private unnamed_addr constant [8 x i8] c"alter.c\00", align 1
@InvalidObjectAddress = external constant %struct.ObjectAddress, align 4
@.str.2 = private unnamed_addr constant [44 x i8] c"unrecognized AlterObjectSchemaStmt type: %d\00", align 1
@__func__.ExecAlterObjectSchemaStmt = private unnamed_addr constant [26 x i8] c"ExecAlterObjectSchemaStmt\00", align 1

; Function Attrs: nounwind uwtable
define dso_local { i64, i32 } @ExecAlterObjectSchemaStmt(ptr noundef %0, ptr noundef %1) #0 {
  %3 = alloca %struct.ObjectAddress, align 4
  %4 = alloca ptr, align 8
  %5 = alloca ptr, align 8
  %6 = alloca %struct.ObjectAddress, align 4
  %7 = alloca i32, align 4
  %8 = alloca %struct.ObjectAddress, align 4
  %9 = alloca { i64, i32 }, align 8
  %10 = alloca %struct.ObjectAddress, align 4
  %11 = alloca { i64, i32 }, align 8
  %12 = alloca %struct.ObjectAddress, align 4
  %13 = alloca { i64, i32 }, align 8
  %14 = alloca ptr, align 8
  %15 = alloca i32, align 4
  %16 = alloca i32, align 4
  %17 = alloca %struct.ObjectAddress, align 4
  %18 = alloca { i64, i32 }, align 8
  %19 = alloca i32, align 4
  %20 = alloca { i64, i32 }, align 8
  store ptr %0, ptr %4, align 8
  store ptr %1, ptr %5, align 8
  call void @llvm.lifetime.start.p0(i64 12, ptr %6) #6
  call void @llvm.lifetime.start.p0(i64 4, ptr %7) #6
  %21 = load ptr, ptr %4, align 8
  %22 = getelementptr inbounds nuw %struct.AlterObjectSchemaStmt, ptr %21, i32 0, i32 1
  %23 = load i32, ptr %22, align 4
  switch i32 %23, label %88 [
    i32 15, label %24
    i32 18, label %40
    i32 37, label %40
    i32 41, label %40
    i32 51, label %40
    i32 23, label %40
    i32 12, label %49
    i32 49, label %49
    i32 1, label %66
    i32 7, label %66
    i32 8, label %66
    i32 19, label %66
    i32 25, label %66
    i32 24, label %66
    i32 26, label %66
    i32 29, label %66
    i32 34, label %66
    i32 39, label %66
    i32 45, label %66
    i32 46, label %66
    i32 47, label %66
    i32 48, label %66
  ]

24:                                               ; preds = %2
  call void @llvm.lifetime.start.p0(i64 12, ptr %8) #6
  %25 = load ptr, ptr %4, align 8
  %26 = getelementptr inbounds nuw %struct.AlterObjectSchemaStmt, ptr %25, i32 0, i32 3
  %27 = load ptr, ptr %26, align 8
  %28 = getelementptr inbounds nuw %struct.String, ptr %27, i32 0, i32 1
  %29 = load ptr, ptr %28, align 8
  %30 = load ptr, ptr %4, align 8
  %31 = getelementptr inbounds nuw %struct.AlterObjectSchemaStmt, ptr %30, i32 0, i32 4
  %32 = load ptr, ptr %31, align 8
  %33 = load ptr, ptr %5, align 8
  %34 = icmp ne ptr %33, null
  br i1 %34, label %35, label %36

35:                                               ; preds = %24
  br label %37

36:                                               ; preds = %24
  br label %37

37:                                               ; preds = %36, %35
  %38 = phi ptr [ %7, %35 ], [ null, %36 ]
  %39 = call { i64, i32 } @AlterExtensionNamespace(ptr noundef %29, ptr noundef %32, ptr noundef %38)
  store { i64, i32 } %39, ptr %9, align 8
  call void @llvm.memcpy.p0.p0.i64(ptr align 4 %8, ptr align 8 %9, i64 12, i1 false)
  call void @llvm.memcpy.p0.p0.i64(ptr align 4 %6, ptr align 4 %8, i64 12, i1 false)
  call void @llvm.lifetime.end.p0(i64 12, ptr %8) #6
  br label %102

40:                                               ; preds = %2, %2, %2, %2, %2
  call void @llvm.lifetime.start.p0(i64 12, ptr %10) #6
  %41 = load ptr, ptr %4, align 8
  %42 = load ptr, ptr %5, align 8
  %43 = icmp ne ptr %42, null
  br i1 %43, label %44, label %45

44:                                               ; preds = %40
  br label %46

45:                                               ; preds = %40
  br label %46

46:                                               ; preds = %45, %44
  %47 = phi ptr [ %7, %44 ], [ null, %45 ]
  %48 = call { i64, i32 } @AlterTableNamespace(ptr noundef %41, ptr noundef %47)
  store { i64, i32 } %48, ptr %11, align 8
  call void @llvm.memcpy.p0.p0.i64(ptr align 4 %10, ptr align 8 %11, i64 12, i1 false)
  call void @llvm.memcpy.p0.p0.i64(ptr align 4 %6, ptr align 4 %10, i64 12, i1 false)
  call void @llvm.lifetime.end.p0(i64 12, ptr %10) #6
  br label %102

49:                                               ; preds = %2, %2
  call void @llvm.lifetime.start.p0(i64 12, ptr %12) #6
  %50 = load ptr, ptr %4, align 8
  %51 = getelementptr inbounds nuw %struct.AlterObjectSchemaStmt, ptr %50, i32 0, i32 3
  %52 = load ptr, ptr %51, align 8
  %53 = load ptr, ptr %4, align 8
  %54 = getelementptr inbounds nuw %struct.AlterObjectSchemaStmt, ptr %53, i32 0, i32 4
  %55 = load ptr, ptr %54, align 8
  %56 = load ptr, ptr %4, align 8
  %57 = getelementptr inbounds nuw %struct.AlterObjectSchemaStmt, ptr %56, i32 0, i32 1
  %58 = load i32, ptr %57, align 4
  %59 = load ptr, ptr %5, align 8
  %60 = icmp ne ptr %59, null
  br i1 %60, label %61, label %62

61:                                               ; preds = %49
  br label %63

62:                                               ; preds = %49
  br label %63

63:                                               ; preds = %62, %61
  %64 = phi ptr [ %7, %61 ], [ null, %62 ]
  %65 = call { i64, i32 } @AlterTypeNamespace(ptr noundef %52, ptr noundef %55, i32 noundef %58, ptr noundef %64)
  store { i64, i32 } %65, ptr %13, align 8
  call void @llvm.memcpy.p0.p0.i64(ptr align 4 %12, ptr align 8 %13, i64 12, i1 false)
  call void @llvm.memcpy.p0.p0.i64(ptr align 4 %6, ptr align 4 %12, i64 12, i1 false)
  call void @llvm.lifetime.end.p0(i64 12, ptr %12) #6
  br label %102

66:                                               ; preds = %2, %2, %2, %2, %2, %2, %2, %2, %2, %2, %2, %2, %2, %2
  call void @llvm.lifetime.start.p0(i64 8, ptr %14) #6
  call void @llvm.lifetime.start.p0(i64 4, ptr %15) #6
  call void @llvm.lifetime.start.p0(i64 4, ptr %16) #6
  call void @llvm.lifetime.start.p0(i64 12, ptr %17) #6
  %67 = load ptr, ptr %4, align 8
  %68 = getelementptr inbounds nuw %struct.AlterObjectSchemaStmt, ptr %67, i32 0, i32 1
  %69 = load i32, ptr %68, align 4
  %70 = load ptr, ptr %4, align 8
  %71 = getelementptr inbounds nuw %struct.AlterObjectSchemaStmt, ptr %70, i32 0, i32 3
  %72 = load ptr, ptr %71, align 8
  %73 = call { i64, i32 } @get_object_address(i32 noundef %69, ptr noundef %72, ptr noundef null, i32 noundef 8, i1 noundef zeroext false)
  store { i64, i32 } %73, ptr %18, align 8
  call void @llvm.memcpy.p0.p0.i64(ptr align 4 %17, ptr align 8 %18, i64 12, i1 false)
  call void @llvm.memcpy.p0.p0.i64(ptr align 4 %6, ptr align 4 %17, i64 12, i1 false)
  call void @llvm.lifetime.end.p0(i64 12, ptr %17) #6
  %74 = getelementptr inbounds nuw %struct.ObjectAddress, ptr %6, i32 0, i32 0
  %75 = load i32, ptr %74, align 4
  store i32 %75, ptr %15, align 4
  %76 = load i32, ptr %15, align 4
  %77 = call ptr @table_open(i32 noundef %76, i32 noundef 3)
  store ptr %77, ptr %14, align 8
  %78 = load ptr, ptr %4, align 8
  %79 = getelementptr inbounds nuw %struct.AlterObjectSchemaStmt, ptr %78, i32 0, i32 4
  %80 = load ptr, ptr %79, align 8
  %81 = call i32 @LookupCreationNamespace(ptr noundef %80)
  store i32 %81, ptr %16, align 4
  %82 = load ptr, ptr %14, align 8
  %83 = getelementptr inbounds nuw %struct.ObjectAddress, ptr %6, i32 0, i32 1
  %84 = load i32, ptr %83, align 4
  %85 = load i32, ptr %16, align 4
  %86 = call i32 @AlterObjectNamespace_internal(ptr noundef %82, i32 noundef %84, i32 noundef %85)
  store i32 %86, ptr %7, align 4
  %87 = load ptr, ptr %14, align 8
  call void @table_close(ptr noundef %87, i32 noundef 3)
  call void @llvm.lifetime.end.p0(i64 4, ptr %16) #6
  call void @llvm.lifetime.end.p0(i64 4, ptr %15) #6
  call void @llvm.lifetime.end.p0(i64 8, ptr %14) #6
  br label %102

88:                                               ; preds = %2
  br label %89

89:                                               ; preds = %88
  br i1 true, label %90, label %92

90:                                               ; preds = %89
  %91 = call zeroext i1 @errstart_cold(i32 noundef 21, ptr noundef null) #7
  br i1 %91, label %94, label %99

92:                                               ; preds = %89
  %93 = call zeroext i1 @errstart(i32 noundef 21, ptr noundef null)
  br i1 %93, label %94, label %99

94:                                               ; preds = %92, %90
  %95 = load ptr, ptr %4, align 8
  %96 = getelementptr inbounds nuw %struct.AlterObjectSchemaStmt, ptr %95, i32 0, i32 1
  %97 = load i32, ptr %96, align 4
  %98 = call i32 (ptr, ...) @errmsg_internal(ptr noundef @.str.2, i32 noundef %97)
  call void @errfinish(ptr noundef @.str.1, i32 noundef 584, ptr noundef @__func__.ExecAlterObjectSchemaStmt)
  br label %99

99:                                               ; preds = %94, %92, %90
  unreachable

100:                                              ; No predecessors!
  br label %101

101:                                              ; preds = %100
  call void @llvm.memcpy.p0.p0.i64(ptr align 4 %3, ptr align 4 @InvalidObjectAddress, i64 12, i1 false)
  store i32 1, ptr %19, align 4
  br label %117

102:                                              ; preds = %66, %63, %46, %37
  %103 = load ptr, ptr %5, align 8
  %104 = icmp ne ptr %103, null
  br i1 %104, label %105, label %116

105:                                              ; preds = %102
  br label %106

106:                                              ; preds = %105
  %107 = load ptr, ptr %5, align 8
  %108 = getelementptr inbounds nuw %struct.ObjectAddress, ptr %107, i32 0, i32 0
  store i32 2615, ptr %108, align 4
  %109 = load i32, ptr %7, align 4
  %110 = load ptr, ptr %5, align 8
  %111 = getelementptr inbounds nuw %struct.ObjectAddress, ptr %110, i32 0, i32 1
  store i32 %109, ptr %111, align 4
  %112 = load ptr, ptr %5, align 8
  %113 = getelementptr inbounds nuw %struct.ObjectAddress, ptr %112, i32 0, i32 2
  store i32 0, ptr %113, align 4
  br label %114

114:                                              ; preds = %106
  br label %115

115:                                              ; preds = %114
  br label %116

116:                                              ; preds = %115, %102
  call void @llvm.memcpy.p0.p0.i64(ptr align 4 %3, ptr align 4 %6, i64 12, i1 false)
  store i32 1, ptr %19, align 4
  br label %117

117:                                              ; preds = %116, %101
  call void @llvm.lifetime.end.p0(i64 4, ptr %7) #6
  call void @llvm.lifetime.end.p0(i64 12, ptr %6) #6
  call void @llvm.memcpy.p0.p0.i64(ptr align 8 %20, ptr align 4 %3, i64 12, i1 false)
  %118 = load { i64, i32 }, ptr %20, align 8
  ret { i64, i32 } %118
}