; Function Attrs: nounwind uwtable
define dso_local { i64, i32 } @ExecAlterObjectSchemaStmt(ptr noundef %0, ptr noundef writeonly captures(address_is_null) %1) local_unnamed_addr #0 {
  %3 = alloca i32, align 4
  call void @llvm.lifetime.start.p0(i64 4, ptr nonnull %3) #8
  %4 = getelementptr inbounds nuw i8, ptr %0, i64 4
  %5 = load i32, ptr %4, align 4
  switch i32 %5, label %31 [
    i32 15, label %6
    i32 18, label %14
    i32 37, label %14
    i32 41, label %14
    i32 51, label %14
    i32 23, label %14
    i32 12, label %16
    i32 49, label %16
    i32 1, label %22
    i32 7, label %22
    i32 8, label %22
    i32 19, label %22
    i32 25, label %22
    i32 24, label %22
    i32 26, label %22
    i32 29, label %22
    i32 34, label %22
    i32 39, label %22
    i32 45, label %22
    i32 46, label %22
    i32 47, label %22
    i32 48, label %22
  ]

6:                                                ; preds = %2
  %7 = getelementptr inbounds nuw i8, ptr %0, i64 16
  %8 = load ptr, ptr %7, align 8
  %9 = getelementptr inbounds nuw i8, ptr %8, i64 8
  %10 = load ptr, ptr %9, align 8
  %11 = getelementptr inbounds nuw i8, ptr %0, i64 24
  %12 = load ptr, ptr %11, align 8
  %.not57 = icmp eq ptr %1, null
  %. = select i1 %.not57, ptr null, ptr %3
  %13 = call { i64, i32 } @AlterExtensionNamespace(ptr noundef %10, ptr noundef %12, ptr noundef %.) #8
  %.fca.0.extract20 = extractvalue { i64, i32 } %13, 0
  %.sroa.026.sroa.8.0.extract.shift34 = lshr i64 %.fca.0.extract20, 32
  br label %35

14:                                               ; preds = %2, %2, %2, %2, %2
  %.not56 = icmp eq ptr %1, null
  %.1 = select i1 %.not56, ptr null, ptr %3
  %15 = call { i64, i32 } @AlterTableNamespace(ptr noundef nonnull %0, ptr noundef %.1) #8
  %.fca.0.extract14 = extractvalue { i64, i32 } %15, 0
  %.sroa.026.sroa.8.0.extract.shift32 = lshr i64 %.fca.0.extract14, 32
  br label %35

16:                                               ; preds = %2, %2
  %17 = getelementptr inbounds nuw i8, ptr %0, i64 16
  %18 = load ptr, ptr %17, align 8
  %19 = getelementptr inbounds nuw i8, ptr %0, i64 24
  %20 = load ptr, ptr %19, align 8
  %.not = icmp eq ptr %1, null
  %.2 = select i1 %.not, ptr null, ptr %3
  %21 = call { i64, i32 } @AlterTypeNamespace(ptr noundef %18, ptr noundef %20, i32 noundef %5, ptr noundef %.2) #8
  %.fca.0.extract8 = extractvalue { i64, i32 } %21, 0
  %.sroa.026.sroa.8.0.extract.shift30 = lshr i64 %.fca.0.extract8, 32
  br label %35

22:                                               ; preds = %2, %2, %2, %2, %2, %2, %2, %2, %2, %2, %2, %2, %2, %2
  %23 = getelementptr inbounds nuw i8, ptr %0, i64 16
  %24 = load ptr, ptr %23, align 8
  %25 = tail call { i64, i32 } @get_object_address(i32 noundef %5, ptr noundef %24, ptr noundef null, i32 noundef 8, i1 noundef zeroext false) #8
  %.fca.0.extract = extractvalue { i64, i32 } %25, 0
  %.sroa.026.sroa.0.0.extract.trunc = trunc i64 %.fca.0.extract to i32
  %.sroa.026.sroa.8.0.extract.shift = lshr i64 %.fca.0.extract, 32
  %.sroa.026.sroa.8.0.extract.trunc = trunc nuw i64 %.sroa.026.sroa.8.0.extract.shift to i32
  %26 = tail call ptr @table_open(i32 noundef %.sroa.026.sroa.0.0.extract.trunc, i32 noundef 3) #8
  %27 = getelementptr inbounds nuw i8, ptr %0, i64 24
  %28 = load ptr, ptr %27, align 8
  %29 = tail call i32 @LookupCreationNamespace(ptr noundef %28) #8
  %30 = tail call fastcc i32 @AlterObjectNamespace_internal(ptr noundef %26, i32 noundef %.sroa.026.sroa.8.0.extract.trunc, i32 noundef %29)
  store i32 %30, ptr %3, align 4
  tail call void @table_close(ptr noundef %26, i32 noundef 3) #8
  br label %35

31:                                               ; preds = %2
  %32 = tail call zeroext i1 @errstart_cold(i32 noundef 21, ptr noundef null) #9
  tail call void @llvm.assume(i1 %32)
  %33 = load i32, ptr %4, align 4
  %34 = tail call i32 (ptr, ...) @errmsg_internal(ptr noundef nonnull @.str.2, i32 noundef %33) #8
  tail call void @errfinish(ptr noundef nonnull @.str.1, i32 noundef 584, ptr noundef nonnull @__func__.ExecAlterObjectSchemaStmt) #8
  unreachable

35:                                               ; preds = %22, %16, %14, %6
  %.pn = phi { i64, i32 } [ %25, %22 ], [ %21, %16 ], [ %15, %14 ], [ %13, %6 ]
  %.sroa.026.sroa.0.0 = phi i64 [ %.fca.0.extract, %22 ], [ %.fca.0.extract8, %16 ], [ %.fca.0.extract14, %14 ], [ %.fca.0.extract20, %6 ]
  %.sroa.026.sroa.8.0 = phi i64 [ %.sroa.026.sroa.8.0.extract.shift, %22 ], [ %.sroa.026.sroa.8.0.extract.shift30, %16 ], [ %.sroa.026.sroa.8.0.extract.shift32, %14 ], [ %.sroa.026.sroa.8.0.extract.shift34, %6 ]
  %.not58 = icmp eq ptr %1, null
  br i1 %.not58, label %40, label %36

36:                                               ; preds = %35
  store i32 2615, ptr %1, align 4
  %37 = load i32, ptr %3, align 4
  %38 = getelementptr inbounds nuw i8, ptr %1, i64 4
  store i32 %37, ptr %38, align 4
  %39 = getelementptr inbounds nuw i8, ptr %1, i64 8
  store i32 0, ptr %39, align 4
  br label %40

40:                                               ; preds = %36, %35
  %.sroa.9.0 = extractvalue { i64, i32 } %.pn, 1
  %.sroa.026.sroa.8.0.insert.shift = shl nuw i64 %.sroa.026.sroa.8.0, 32
  %.sroa.026.sroa.0.0.insert.ext = and i64 %.sroa.026.sroa.0.0, 4294967295
  %.sroa.026.sroa.0.0.insert.insert = or disjoint i64 %.sroa.026.sroa.8.0.insert.shift, %.sroa.026.sroa.0.0.insert.ext
  call void @llvm.lifetime.end.p0(i64 4, ptr nonnull %3) #8
  %.fca.0.insert = insertvalue { i64, i32 } poison, i64 %.sroa.026.sroa.0.0.insert.insert, 0
  %.fca.1.insert = insertvalue { i64, i32 } %.fca.0.insert, i32 %.sroa.9.0, 1
  ret { i64, i32 } %.fca.1.insert
}